; Function Attrs: mustprogress uwtable
define internal fastcc void @_ZN9grpc_core12_GLOBAL__N_112OldPickFirst11UpdateStateE23grpc_connectivity_stateRKN4absl12lts_202407226StatusENS_13RefCountedPtrINS_19LoadBalancingPolicy16SubchannelPickerEEE(ptr noundef nonnull align 8 captures(none) dereferenceable(480) initializes((184, 188)) %0, i32 noundef range(i32 0, 4) %1, ptr noundef nonnull align 8 dereferenceable(8) %2, ptr noundef nonnull captures(none) %3) unnamed_addr #4 align 2 personality ptr @__gxx_personality_v0 {
  %5 = alloca %"class.grpc_core::RefCountedPtr.257", align 8
  %6 = getelementptr inbounds nuw i8, ptr %0, i64 184
  store i32 %1, ptr %6, align 8, !tbaa !102
  %7 = getelementptr inbounds nuw i8, ptr %0, i64 40
  %8 = load ptr, ptr %7, align 8, !tbaa !47
  %9 = load ptr, ptr %3, align 8, !tbaa !335
  store ptr %9, ptr %5, align 8, !tbaa !335
  store ptr null, ptr %3, align 8, !tbaa !335
  %10 = load ptr, ptr %8, align 8, !tbaa !6
  %11 = getelementptr inbounds nuw i8, ptr %10, i64 24
  %12 = load ptr, ptr %11, align 8
  invoke void %12(ptr noundef nonnull align 8 dereferenceable(8) %8, i32 noundef %1, ptr noundef nonnull align 8 dereferenceable(8) %2, ptr noundef nonnull %5)
          to label %13 unwind label %32

13:                                               ; preds = %4
  %14 = load ptr, ptr %5, align 8, !tbaa !335
  %.not.i = icmp eq ptr %14, null
  br i1 %.not.i, label %_ZN9grpc_core13RefCountedPtrINS_19LoadBalancingPolicy16SubchannelPickerEED2Ev.exit, label %15

15:                                               ; preds = %13
  %16 = getelementptr inbounds nuw i8, ptr %14, i64 8
  %17 = atomicrmw add ptr %16, i64 -4294967295 acq_rel, align 8
  %.mask.i.i = and i64 %17, -4294967296
  %18 = icmp eq i64 %.mask.i.i, 4294967296
  br i1 %18, label %19, label %.noexc.i, !prof !35

19:                                               ; preds = %15
  %20 = load ptr, ptr %14, align 8, !tbaa !6
  %21 = getelementptr inbounds nuw i8, ptr %20, i64 16
  %22 = load ptr, ptr %21, align 8
  invoke void %22(ptr noundef nonnull align 8 dereferenceable(16) %14)
          to label %.noexc.i unwind label %29

.noexc.i:                                         ; preds = %19, %15
  %23 = atomicrmw sub ptr %16, i64 1 acq_rel, align 8
  %24 = icmp eq i64 %23, 1
  br i1 %24, label %25, label %_ZN9grpc_core13RefCountedPtrINS_19LoadBalancingPolicy16SubchannelPickerEED2Ev.exit, !prof !35

25:                                               ; preds = %.noexc.i
  %26 = load ptr, ptr %14, align 8, !tbaa !6
  %27 = getelementptr inbounds nuw i8, ptr %26, i64 8
  %28 = load ptr, ptr %27, align 8
  call void %28(ptr noundef nonnull align 8 dereferenceable(16) %14) #37
  br label %_ZN9grpc_core13RefCountedPtrINS_19LoadBalancingPolicy16SubchannelPickerEED2Ev.exit

29:                                               ; preds = %19
  %30 = landingpad { ptr, i32 }
          catch ptr null
  %31 = extractvalue { ptr, i32 } %30, 0
  call void @__clang_call_terminate(ptr %31) #40
  unreachable

_ZN9grpc_core13RefCountedPtrINS_19LoadBalancingPolicy16SubchannelPickerEED2Ev.exit: ; preds = %13, %.noexc.i, %25
  ret void

32:                                               ; preds = %4
  %33 = landingpad { ptr, i32 }
          cleanup
  call void @_ZN9grpc_core13RefCountedPtrINS_19LoadBalancingPolicy16SubchannelPickerEED2Ev(ptr noundef nonnull align 8 dereferenceable(8) %5) #37
  resume { ptr, i32 } %33
}